; ModuleID = '49/1214.c'
source_filename = "49/1214.c"
target datalayout = "e-m:e-p270:32:32-p271:32:32-p272:64:64-i64:64-f80:128-n8:16:32:64-S128"
target triple = "x86_64-pc-linux-gnu"

@.str = private unnamed_addr constant [3 x i8] c"%c\00", align 1
@.str.1 = private unnamed_addr constant [2 x i8] c"\0A\00", align 1

; Function Attrs: noinline nounwind uwtable
define dso_local i32 @main() #0 {
  %1 = alloca i32, align 4
  %2 = alloca [500 x i8], align 16
  %3 = alloca i8*, align 8
  %4 = alloca i8*, align 8
  %5 = alloca i8*, align 8
  %6 = alloca i8*, align 8
  %7 = alloca i8*, align 8
  %8 = alloca i8*, align 8
  %9 = alloca i32, align 4
  %10 = alloca i32, align 4
  %11 = alloca i32, align 4
  %12 = alloca i32, align 4
  store i32 0, i32* %1, align 4
  %13 = getelementptr inbounds [500 x i8], [500 x i8]* %2, i64 0, i64 0
  %14 = call i32 (i8*, ...) bitcast (i32 (...)* @gets to i32 (i8*, ...)*)(i8* %13)
  %15 = getelementptr inbounds [500 x i8], [500 x i8]* %2, i64 0, i64 0
  %16 = call i64 @strlen(i8* %15) #3
  %17 = trunc i64 %16 to i32
  store i32 %17, i32* %10, align 4
  store i32 1, i32* %11, align 4
  br label %18

18:                                               ; preds = %87, %0
  %19 = load i32, i32* %11, align 4
  %20 = load i32, i32* %10, align 4
  %21 = sub nsw i32 %20, 1
  %22 = icmp sle i32 %19, %21
  br i1 %22, label %23, label %90

23:                                               ; preds = %18
  %24 = getelementptr inbounds [500 x i8], [500 x i8]* %2, i64 0, i64 0
  store i8* %24, i8** %3, align 8
  %25 = load i32, i32* %11, align 4
  %26 = sext i32 %25 to i64
  %27 = getelementptr inbounds [500 x i8], [500 x i8]* %2, i64 0, i64 %26
  store i8* %27, i8** %4, align 8
  store i32 0, i32* %9, align 4
  br label %28

28:                                               ; preds = %79, %23
  %29 = load i32, i32* %9, align 4
  %30 = load i32, i32* %10, align 4
  %31 = load i32, i32* %11, align 4
  %32 = sub nsw i32 %30, %31
  %33 = icmp slt i32 %29, %32
  br i1 %33, label %34, label %86

34:                                               ; preds = %28
  %35 = load i8*, i8** %3, align 8
  store i8* %35, i8** %7, align 8
  %36 = load i8*, i8** %3, align 8
  store i8* %36, i8** %5, align 8
  %37 = load i8*, i8** %4, align 8
  store i8* %37, i8** %8, align 8
  %38 = load i8*, i8** %4, align 8
  store i8* %38, i8** %6, align 8
  store i32 0, i32* %12, align 4
  br label %39

39:                                               ; preds = %55, %34
  %40 = load i8*, i8** %5, align 8
  %41 = load i8*, i8** %6, align 8
  %42 = icmp ule i8* %40, %41
  br i1 %42, label %43, label %60

43:                                               ; preds = %39
  %44 = load i8*, i8** %5, align 8
  %45 = load i8, i8* %44, align 1
  %46 = sext i8 %45 to i32
  %47 = load i8*, i8** %6, align 8
  %48 = load i8, i8* %47, align 1
  %49 = sext i8 %48 to i32
  %50 = icmp ne i32 %46, %49
  br i1 %50, label %51, label %54

51:                                               ; preds = %43
  %52 = load i32, i32* %12, align 4
  %53 = add nsw i32 %52, 1
  store i32 %53, i32* %12, align 4
  br label %54

54:                                               ; preds = %51, %43
  br label %55

55:                                               ; preds = %54
  %56 = load i8*, i8** %5, align 8
  %57 = getelementptr inbounds i8, i8* %56, i32 1
  store i8* %57, i8** %5, align 8
  %58 = load i8*, i8** %6, align 8
  %59 = getelementptr inbounds i8, i8* %58, i32 -1
  store i8* %59, i8** %6, align 8
  br label %39

60:                                               ; preds = %39
  %61 = load i32, i32* %12, align 4
  %62 = icmp eq i32 %61, 0
  br i1 %62, label %63, label %78

63:                                               ; preds = %60
  br label %64

64:                                               ; preds = %73, %63
  %65 = load i8*, i8** %7, align 8
  %66 = load i8*, i8** %8, align 8
  %67 = icmp ule i8* %65, %66
  br i1 %67, label %68, label %76

68:                                               ; preds = %64
  %69 = load i8*, i8** %7, align 8
  %70 = load i8, i8* %69, align 1
  %71 = sext i8 %70 to i32
  %72 = call i32 (i8*, ...) @printf(i8* getelementptr inbounds ([3 x i8], [3 x i8]* @.str, i64 0, i64 0), i32 %71)
  br label %73

73:                                               ; preds = %68
  %74 = load i8*, i8** %7, align 8
  %75 = getelementptr inbounds i8, i8* %74, i32 1
  store i8* %75, i8** %7, align 8
  br label %64

76:                                               ; preds = %64
  %77 = call i32 (i8*, ...) @printf(i8* getelementptr inbounds ([2 x i8], [2 x i8]* @.str.1, i64 0, i64 0))
  br label %78

78:                                               ; preds = %76, %60
  br label %79

79:                                               ; preds = %78
  %80 = load i32, i32* %9, align 4
  %81 = add nsw i32 %80, 1
  store i32 %81, i32* %9, align 4
  %82 = load i8*, i8** %3, align 8
  %83 = getelementptr inbounds i8, i8* %82, i32 1
  store i8* %83, i8** %3, align 8
  %84 = load i8*, i8** %4, align 8
  %85 = getelementptr inbounds i8, i8* %84, i32 1
  store i8* %85, i8** %4, align 8
  br label %28

86:                                               ; preds = %28
  br label %87

87:                                               ; preds = %86
  %88 = load i32, i32* %11, align 4
  %89 = add nsw i32 %88, 1
  store i32 %89, i32* %11, align 4
  br label %18

90:                                               ; preds = %18
  ret i32 0
}

declare dso_local i32 @gets(...) #1

; Function Attrs: nounwind readonly
declare dso_local i64 @strlen(i8*) #2

declare dso_local i32 @printf(i8*, ...) #1


!llvm.module.flags = !{!0}
!llvm.ident = !{!1}

!0 = !{i32 1, !"wchar_size", i32 4}
!1 = !{!"clang version 10.0.0-4ubuntu1 "}
